; Function Attrs: nounwind uwtable
define void @b2Body_ApplyLinearImpulse(i64 %0, <2 x float> %1, <2 x float> %2, i1 noundef zeroext %3) local_unnamed_addr #8 {
  %.sroa.2.0.extract.shift = lshr i64 %0, 32
  %5 = trunc nuw i64 %.sroa.2.0.extract.shift to i32
  %6 = and i32 %5, 65535
  %7 = tail call ptr @b2GetWorld(i32 noundef %6) #10
  %8 = getelementptr inbounds nuw i8, ptr %7, i64 1032
  %.val.i = load ptr, ptr %8, align 8, !tbaa !10
  %9 = shl i64 %0, 32
  %sext.i = add i64 %9, -4294967296
  %10 = ashr exact i64 %sext.i, 25
  %11 = getelementptr inbounds i8, ptr %.val.i, i64 %10
  br i1 %3, label %12, label %16

12:                                               ; preds = %4
  %13 = getelementptr inbounds nuw i8, ptr %11, i64 40
  %14 = load i32, ptr %13, align 8, !tbaa !19
  %15 = icmp sgt i32 %14, 2
  br i1 %15, label %b2WakeBody.exit, label %16

b2WakeBody.exit:                                  ; preds = %12
  tail call void @b2WakeSolverSet(ptr noundef nonnull %7, i32 noundef %14) #10
  br label %16

16:                                               ; preds = %b2WakeBody.exit, %12, %4
  %17 = getelementptr inbounds nuw i8, ptr %11, i64 40
  %18 = load i32, ptr %17, align 8, !tbaa !19
  %19 = icmp eq i32 %18, 2
  br i1 %19, label %20, label %51

20:                                               ; preds = %16
  %21 = getelementptr inbounds nuw i8, ptr %11, i64 44
  %22 = load i32, ptr %21, align 4, !tbaa !27
  %23 = getelementptr inbounds nuw i8, ptr %7, i64 1072
  %.val = load ptr, ptr %23, align 8, !tbaa !24
  %24 = getelementptr inbounds nuw i8, ptr %.val, i64 176
  %25 = getelementptr inbounds nuw i8, ptr %.val, i64 192
  %.val23 = load ptr, ptr %25, align 8, !tbaa !18
  %26 = sext i32 %22 to i64
  %27 = getelementptr inbounds %struct.b2BodyState, ptr %.val23, i64 %26
  %.val22 = load ptr, ptr %24, align 8, !tbaa !14
  %28 = getelementptr inbounds %struct.b2BodySim, ptr %.val22, i64 %26
  %29 = getelementptr inbounds nuw i8, ptr %28, i64 60
  %30 = load float, ptr %29, align 4, !tbaa !192
  %31 = load <2 x float>, ptr %27, align 4
  %.sroa.02.0.vec.extract.i = extractelement <2 x float> %31, i64 0
  %.sroa.0.0.vec.extract.i = extractelement <2 x float> %1, i64 0
  %32 = fmul float %.sroa.0.0.vec.extract.i, %30
  %33 = fadd float %32, %.sroa.02.0.vec.extract.i
  %.sroa.03.0.vec.insert.i = insertelement <2 x float> poison, float %33, i64 0
  %.sroa.02.4.vec.extract.i = extractelement <2 x float> %31, i64 1
  %.sroa.0.4.vec.extract.i = extractelement <2 x float> %1, i64 1
  %34 = fmul float %.sroa.0.4.vec.extract.i, %30
  %35 = fadd float %34, %.sroa.02.4.vec.extract.i
  %.sroa.03.4.vec.insert.i = insertelement <2 x float> %.sroa.03.0.vec.insert.i, float %35, i64 1
  store <2 x float> %.sroa.03.4.vec.insert.i, ptr %27, align 4
  %36 = getelementptr inbounds nuw i8, ptr %28, i64 64
  %37 = load float, ptr %36, align 4, !tbaa !193
  %38 = getelementptr inbounds nuw i8, ptr %28, i64 16
  %39 = load <2 x float>, ptr %38, align 4
  %40 = fsub <2 x float> %2, %39
  %41 = extractelement <2 x float> %40, i64 0
  %42 = fsub <2 x float> %2, %39
  %43 = fmul float %.sroa.0.4.vec.extract.i, %41
  %shift = shufflevector <2 x float> %42, <2 x float> poison, <2 x i32> <i32 1, i32 poison>
  %44 = fmul <2 x float> %1, %shift
  %45 = extractelement <2 x float> %44, i64 0
  %46 = fsub float %43, %45
  %47 = fmul float %37, %46
  %48 = getelementptr inbounds nuw i8, ptr %27, i64 8
  %49 = load float, ptr %48, align 4, !tbaa !117
  %50 = fadd float %49, %47
  store float %50, ptr %48, align 4, !tbaa !117
  br label %51

51:                                               ; preds = %20, %16
  ret void
}